; ModuleID = '57/2537.c'
source_filename = "57/2537.c"
target datalayout = "e-m:e-p270:32:32-p271:32:32-p272:64:64-i64:64-f80:128-n8:16:32:64-S128"
target triple = "x86_64-pc-linux-gnu"

@.str = private unnamed_addr constant [3 x i8] c"%d\00", align 1
@.str.1 = private unnamed_addr constant [3 x i8] c"%s\00", align 1
@.str.2 = private unnamed_addr constant [4 x i8] c"%s\0A\00", align 1

; Function Attrs: noinline nounwind uwtable
define dso_local void @main() #0 {
  %1 = alloca i32, align 4
  %2 = alloca i32, align 4
  %3 = alloca i32, align 4
  %4 = alloca [51 x [32 x i8]], align 16
  %5 = alloca i8, align 1
  store i32 1, i32* %2, align 4
  %6 = call i32 (i8*, ...) @__isoc99_scanf(i8* getelementptr inbounds ([3 x i8], [3 x i8]* @.str, i64 0, i64 0), i32* %1)
  br label %7

7:                                                ; preds = %11, %0
  %8 = load i32, i32* %2, align 4
  %9 = load i32, i32* %1, align 4
  %10 = icmp sle i32 %8, %9
  br i1 %10, label %11, label %19

11:                                               ; preds = %7
  %12 = load i32, i32* %2, align 4
  %13 = sext i32 %12 to i64
  %14 = getelementptr inbounds [51 x [32 x i8]], [51 x [32 x i8]]* %4, i64 0, i64 %13
  %15 = getelementptr inbounds [32 x i8], [32 x i8]* %14, i64 0, i64 0
  %16 = call i32 (i8*, ...) @__isoc99_scanf(i8* getelementptr inbounds ([3 x i8], [3 x i8]* @.str.1, i64 0, i64 0), i8* %15)
  %17 = load i32, i32* %2, align 4
  %18 = add nsw i32 %17, 1
  store i32 %18, i32* %2, align 4
  br label %7

19:                                               ; preds = %7
  store i32 1, i32* %2, align 4
  br label %20

20:                                               ; preds = %163, %19
  %21 = load i32, i32* %2, align 4
  %22 = load i32, i32* %1, align 4
  %23 = icmp sle i32 %21, %22
  br i1 %23, label %24, label %166

24:                                               ; preds = %20
  store i32 1, i32* %3, align 4
  br label %25

25:                                               ; preds = %159, %24
  %26 = load i32, i32* %3, align 4
  %27 = icmp sle i32 %26, 32
  br i1 %27, label %28, label %162

28:                                               ; preds = %25
  %29 = load i32, i32* %2, align 4
  %30 = sext i32 %29 to i64
  %31 = getelementptr inbounds [51 x [32 x i8]], [51 x [32 x i8]]* %4, i64 0, i64 %30
  %32 = load i32, i32* %3, align 4
  %33 = sext i32 %32 to i64
  %34 = getelementptr inbounds [32 x i8], [32 x i8]* %31, i64 0, i64 %33
  %35 = load i8, i8* %34, align 1
  %36 = sext i8 %35 to i32
  %37 = icmp eq i32 %36, 101
  br i1 %37, label %38, label %67

38:                                               ; preds = %28
  %39 = load i32, i32* %2, align 4
  %40 = sext i32 %39 to i64
  %41 = getelementptr inbounds [51 x [32 x i8]], [51 x [32 x i8]]* %4, i64 0, i64 %40
  %42 = load i32, i32* %3, align 4
  %43 = add nsw i32 %42, 1
  %44 = sext i32 %43 to i64
  %45 = getelementptr inbounds [32 x i8], [32 x i8]* %41, i64 0, i64 %44
  %46 = load i8, i8* %45, align 1
  %47 = sext i8 %46 to i32
  %48 = icmp eq i32 %47, 114
  br i1 %48, label %49, label %67

49:                                               ; preds = %38
  %50 = load i32, i32* %2, align 4
  %51 = sext i32 %50 to i64
  %52 = getelementptr inbounds [51 x [32 x i8]], [51 x [32 x i8]]* %4, i64 0, i64 %51
  %53 = load i32, i32* %3, align 4
  %54 = add nsw i32 %53, 2
  %55 = sext i32 %54 to i64
  %56 = getelementptr inbounds [32 x i8], [32 x i8]* %52, i64 0, i64 %55
  %57 = load i8, i8* %56, align 1
  %58 = sext i8 %57 to i32
  %59 = icmp eq i32 %58, 0
  br i1 %59, label %60, label %67

60:                                               ; preds = %49
  %61 = load i32, i32* %2, align 4
  %62 = sext i32 %61 to i64
  %63 = getelementptr inbounds [51 x [32 x i8]], [51 x [32 x i8]]* %4, i64 0, i64 %62
  %64 = load i32, i32* %3, align 4
  %65 = sext i32 %64 to i64
  %66 = getelementptr inbounds [32 x i8], [32 x i8]* %63, i64 0, i64 %65
  store i8 0, i8* %66, align 1
  br label %158

67:                                               ; preds = %49, %38, %28
  %68 = load i32, i32* %2, align 4
  %69 = sext i32 %68 to i64
  %70 = getelementptr inbounds [51 x [32 x i8]], [51 x [32 x i8]]* %4, i64 0, i64 %69
  %71 = load i32, i32* %3, align 4
  %72 = sext i32 %71 to i64
  %73 = getelementptr inbounds [32 x i8], [32 x i8]* %70, i64 0, i64 %72
  %74 = load i8, i8* %73, align 1
  %75 = sext i8 %74 to i32
  %76 = icmp eq i32 %75, 108
  br i1 %76, label %77, label %106

77:                                               ; preds = %67
  %78 = load i32, i32* %2, align 4
  %79 = sext i32 %78 to i64
  %80 = getelementptr inbounds [51 x [32 x i8]], [51 x [32 x i8]]* %4, i64 0, i64 %79
  %81 = load i32, i32* %3, align 4
  %82 = add nsw i32 %81, 1
  %83 = sext i32 %82 to i64
  %84 = getelementptr inbounds [32 x i8], [32 x i8]* %80, i64 0, i64 %83
  %85 = load i8, i8* %84, align 1
  %86 = sext i8 %85 to i32
  %87 = icmp eq i32 %86, 121
  br i1 %87, label %88, label %106

88:                                               ; preds = %77
  %89 = load i32, i32* %2, align 4
  %90 = sext i32 %89 to i64
  %91 = getelementptr inbounds [51 x [32 x i8]], [51 x [32 x i8]]* %4, i64 0, i64 %90
  %92 = load i32, i32* %3, align 4
  %93 = add nsw i32 %92, 2
  %94 = sext i32 %93 to i64
  %95 = getelementptr inbounds [32 x i8], [32 x i8]* %91, i64 0, i64 %94
  %96 = load i8, i8* %95, align 1
  %97 = sext i8 %96 to i32
  %98 = icmp eq i32 %97, 0
  br i1 %98, label %99, label %106

99:                                               ; preds = %88
  %100 = load i32, i32* %2, align 4
  %101 = sext i32 %100 to i64
  %102 = getelementptr inbounds [51 x [32 x i8]], [51 x [32 x i8]]* %4, i64 0, i64 %101
  %103 = load i32, i32* %3, align 4
  %104 = sext i32 %103 to i64
  %105 = getelementptr inbounds [32 x i8], [32 x i8]* %102, i64 0, i64 %104
  store i8 0, i8* %105, align 1
  br label %157

106:                                              ; preds = %88, %77, %67
  %107 = load i32, i32* %2, align 4
  %108 = sext i32 %107 to i64
  %109 = getelementptr inbounds [51 x [32 x i8]], [51 x [32 x i8]]* %4, i64 0, i64 %108
  %110 = load i32, i32* %3, align 4
  %111 = sext i32 %110 to i64
  %112 = getelementptr inbounds [32 x i8], [32 x i8]* %109, i64 0, i64 %111
  %113 = load i8, i8* %112, align 1
  %114 = sext i8 %113 to i32
  %115 = icmp eq i32 %114, 105
  br i1 %115, label %116, label %156

116:                                              ; preds = %106
  %117 = load i32, i32* %2, align 4
  %118 = sext i32 %117 to i64
  %119 = getelementptr inbounds [51 x [32 x i8]], [51 x [32 x i8]]* %4, i64 0, i64 %118
  %120 = load i32, i32* %3, align 4
  %121 = add nsw i32 %120, 1
  %122 = sext i32 %121 to i64
  %123 = getelementptr inbounds [32 x i8], [32 x i8]* %119, i64 0, i64 %122
  %124 = load i8, i8* %123, align 1
  %125 = sext i8 %124 to i32
  %126 = icmp eq i32 %125, 110
  br i1 %126, label %127, label %156

127:                                              ; preds = %116
  %128 = load i32, i32* %2, align 4
  %129 = sext i32 %128 to i64
  %130 = getelementptr inbounds [51 x [32 x i8]], [51 x [32 x i8]]* %4, i64 0, i64 %129
  %131 = load i32, i32* %3, align 4
  %132 = add nsw i32 %131, 2
  %133 = sext i32 %132 to i64
  %134 = getelementptr inbounds [32 x i8], [32 x i8]* %130, i64 0, i64 %133
  %135 = load i8, i8* %134, align 1
  %136 = sext i8 %135 to i32
  %137 = icmp eq i32 %136, 103
  br i1 %137, label %138, label %156

138:                                              ; preds = %127
  %139 = load i32, i32* %2, align 4
  %140 = sext i32 %139 to i64
  %141 = getelementptr inbounds [51 x [32 x i8]], [51 x [32 x i8]]* %4, i64 0, i64 %140
  %142 = load i32, i32* %3, align 4
  %143 = add nsw i32 %142, 3
  %144 = sext i32 %143 to i64
  %145 = getelementptr inbounds [32 x i8], [32 x i8]* %141, i64 0, i64 %144
  %146 = load i8, i8* %145, align 1
  %147 = sext i8 %146 to i32
  %148 = icmp eq i32 %147, 0
  br i1 %148, label %149, label %156

149:                                              ; preds = %138
  %150 = load i32, i32* %2, align 4
  %151 = sext i32 %150 to i64
  %152 = getelementptr inbounds [51 x [32 x i8]], [51 x [32 x i8]]* %4, i64 0, i64 %151
  %153 = load i32, i32* %3, align 4
  %154 = sext i32 %153 to i64
  %155 = getelementptr inbounds [32 x i8], [32 x i8]* %152, i64 0, i64 %154
  store i8 0, i8* %155, align 1
  br label %156

156:                                              ; preds = %149, %138, %127, %116, %106
  br label %157

157:                                              ; preds = %156, %99
  br label %158

158:                                              ; preds = %157, %60
  br label %159

159:                                              ; preds = %158
  %160 = load i32, i32* %3, align 4
  %161 = add nsw i32 %160, 1
  store i32 %161, i32* %3, align 4
  br label %25

162:                                              ; preds = %25
  br label %163

163:                                              ; preds = %162
  %164 = load i32, i32* %2, align 4
  %165 = add nsw i32 %164, 1
  store i32 %165, i32* %2, align 4
  br label %20

166:                                              ; preds = %20
  store i32 1, i32* %2, align 4
  br label %167

167:                                              ; preds = %177, %166
  %168 = load i32, i32* %2, align 4
  %169 = load i32, i32* %1, align 4
  %170 = icmp sle i32 %168, %169
  br i1 %170, label %171, label %180

171:                                              ; preds = %167
  %172 = load i32, i32* %2, align 4
  %173 = sext i32 %172 to i64
  %174 = getelementptr inbounds [51 x [32 x i8]], [51 x [32 x i8]]* %4, i64 0, i64 %173
  %175 = getelementptr inbounds [32 x i8], [32 x i8]* %174, i64 0, i64 0
  %176 = call i32 (i8*, ...) @printf(i8* getelementptr inbounds ([4 x i8], [4 x i8]* @.str.2, i64 0, i64 0), i8* %175)
  br label %177

177:                                              ; preds = %171
  %178 = load i32, i32* %2, align 4
  %179 = add nsw i32 %178, 1
  store i32 %179, i32* %2, align 4
  br label %167

180:                                              ; preds = %167
  ret void
}

declare dso_local i32 @__isoc99_scanf(i8*, ...) #1

declare dso_local i32 @printf(i8*, ...) #1


!llvm.module.flags = !{!0}
!llvm.ident = !{!1}

!0 = !{i32 1, !"wchar_size", i32 4}
!1 = !{!"clang version 10.0.0-4ubuntu1 "}
